target datalayout = "e-m:e-p270:32:32-p271:32:32-p272:64:64-i64:64-i128:128-f80:128-n8:16:32:64-S128"
target triple = "x86_64-unknown-linux-gnu"

%struct.redisServer = type { i32, i64, ptr, ptr, ptr, i32, i32, i32, i32, i32, ptr, ptr, ptr, ptr, ptr, ptr, i32, i32, i64, i32, i32, i32, i32, ptr, i32, i32, [41 x i8], i32, i64, i32, i32, i32, ptr, ptr, i32, i32, i64, ptr, ptr, ptr, ptr, [2 x i32], i32, i32, i32, i32, i32, [16 x ptr], i32, ptr, ptr, i32, [8 x %struct.connListener], i32, %struct.connListener, ptr, ptr, ptr, ptr, ptr, ptr, ptr, ptr, ptr, ptr, i32, ptr, i32, ptr, [3 x %struct.pause_event], [256 x i8], ptr, i64, i32, i32, i32, i32, i64, i32, i32, i32, i32, i32, i64, i64, i64, i64, i64, i64, i64, i64, i64, double, i64, i64, i64, i64, i64, i64, i64, i64, i64, i64, i64, i64, i64, i64, i64, i64, i64, i64, i64, i64, double, i64, i64, i64, i64, i64, ptr, i64, i64, i64, %struct.malloc_stats, i64, i64, i64, i64, i64, i64, i64, i64, i64, i64, i64, i64, double, [4 x i64], i64, i64, i64, i64, i64, i64, i64, i64, i64, i64, [7 x %struct.anon], i64, i64, i64, i64, i64, i64, [4 x %struct.durationStats], i32, i32, i32, i32, i32, i32, i32, i32, i32, i32, i64, i32, i32, i32, i32, i64, i64, i32, i32, i32, i32, i32, ptr, [3 x %struct.clientBufferLimitsConfig], i32, i32, ptr, i32, i32, i32, i32, ptr, ptr, i32, i32, i64, i64, i64, i64, i64, i32, i32, ptr, i32, i32, i64, i64, i64, i64, i64, i32, i32, i64, i32, i32, i32, i32, i32, i32, i32, i32, ptr, i32, i64, i64, i64, i64, ptr, i32, ptr, i32, i32, i32, i64, i64, i64, i64, i32, i32, i32, i32, i32, i32, ptr, i32, i32, ptr, i32, i32, i32, [2 x i32], i32, %struct.redisOpArray, i32, ptr, i32, ptr, i32, i32, i32, i32, i32, i32, i32, [41 x i8], [41 x i8], i64, i64, i64, i64, i32, i32, ptr, i64, i64, i64, i32, i32, i32, i32, i32, i32, i32, i64, ptr, ptr, ptr, ptr, i32, i32, ptr, ptr, i32, i32, i64, i64, i64, ptr, i32, ptr, i64, i32, i32, i32, i64, i32, i32, i32, i32, ptr, i32, i32, [41 x i8], i64, i32, ptr, i32, i32, i64, i64, i32, i32, i32, i32, i32, i64, [3 x i32], i32, i32, i32, [9 x i32], ptr, ptr, i32, i64, ptr, ptr, i32, i32, i32, i32, i64, i64, i64, i64, i64, i64, i64, i64, i64, i64, i32, i32, i64, i64, i32, i64, i64, i64, i64, i64, ptr, ptr, i32, ptr, i32, i32, i32, i64, i64, ptr, ptr, i32, i32, i32, i32, i32, ptr, ptr, ptr, i32, i32, i32, i32, i32, i32, i32, i64, i32, i64, i32, i32, i32, i32, i32, i32, i32, i64, ptr, ptr, i64, ptr, i32, %struct.aclInfo, i32, i64, i32, i32, i32, %struct.redisTLSContextConfig, ptr, ptr, ptr, ptr, ptr, i64, i32, ptr, i32, i32, i32, i64, i32, ptr }
%struct.connListener = type { [16 x i32], i32, ptr, i32, i32, ptr, ptr }
%struct.pause_event = type { i32, i64 }
%struct.malloc_stats = type { i64, i64, i64, i64, i64 }
%struct.anon = type { i64, i64, [16 x i64], i32 }
%struct.durationStats = type { i64, i64, i64 }
%struct.clientBufferLimitsConfig = type { i64, i64, i64 }
%struct.redisOpArray = type { ptr, i32, i32 }
%struct.aclInfo = type { i64, i64, i64, i64 }
%struct.redisTLSContextConfig = type { ptr, ptr, ptr, ptr, ptr, ptr, ptr, ptr, ptr, ptr, ptr, ptr, i32, i32, i32, i32 }

@server = dso_local global %struct.redisServer zeroinitializer, align 8
@.str.170 = private unnamed_addr constant [3 x i8] c"\0D\0A\00", align 1
@.str.327 = private unnamed_addr constant [29 x i8] c"latency_percentiles_usec_%s:\00", align 1
@.str.328 = private unnamed_addr constant [3 x i8] c"%f\00", align 1
@.str.329 = private unnamed_addr constant [9 x i8] c"p%s=%.3f\00", align 1
@.str.330 = private unnamed_addr constant [2 x i8] c",\00", align 1

; Function Attrs: nounwind uwtable
define dso_local ptr @fillPercentileDistributionLatencies(ptr noundef %info, ptr noundef %histogram_name, ptr noundef %histogram) #0 {
entry:
  %info.addr = alloca ptr, align 8
  %histogram_name.addr = alloca ptr, align 8
  %histogram.addr = alloca ptr, align 8
  %j = alloca i32, align 4
  %fbuf = alloca [128 x i8], align 16
  %len = alloca i64, align 8
  store ptr %info, ptr %info.addr, align 8
  store ptr %histogram_name, ptr %histogram_name.addr, align 8
  store ptr %histogram, ptr %histogram.addr, align 8
  %0 = load ptr, ptr %info.addr, align 8
  %1 = load ptr, ptr %histogram_name.addr, align 8
  %call = call ptr (ptr, ptr, ...) @sdscatfmt(ptr noundef %0, ptr noundef @.str.327, ptr noundef %1)
  store ptr %call, ptr %info.addr, align 8
  store i32 0, ptr %j, align 4
  br label %for.cond

for.cond:                                         ; preds = %for.inc, %entry
  %2 = load i32, ptr %j, align 4
  %3 = load i32, ptr getelementptr inbounds (%struct.redisServer, ptr @server, i32 0, i32 183), align 8
  %cmp = icmp slt i32 %2, %3
  br i1 %cmp, label %for.body, label %for.end

for.body:                                         ; preds = %for.cond
  %arraydecay = getelementptr inbounds [128 x i8], ptr %fbuf, i64 0, i64 0
  %4 = load ptr, ptr getelementptr inbounds (%struct.redisServer, ptr @server, i32 0, i32 182), align 8
  %5 = load i32, ptr %j, align 4
  %idxprom = sext i32 %5 to i64
  %arrayidx = getelementptr inbounds double, ptr %4, i64 %idxprom
  %6 = load double, ptr %arrayidx, align 8
  %call1 = call i32 (ptr, i64, ptr, ...) @snprintf(ptr noundef %arraydecay, i64 noundef 128, ptr noundef @.str.328, double noundef %6) #13
  %conv = sext i32 %call1 to i64
  store i64 %conv, ptr %len, align 8
  %arraydecay2 = getelementptr inbounds [128 x i8], ptr %fbuf, i64 0, i64 0
  %7 = load i64, ptr %len, align 8
  %call3 = call i32 @trimDoubleString(ptr noundef %arraydecay2, i64 noundef %7)
  %8 = load ptr, ptr %info.addr, align 8
  %arraydecay4 = getelementptr inbounds [128 x i8], ptr %fbuf, i64 0, i64 0
  %9 = load ptr, ptr %histogram.addr, align 8
  %10 = load ptr, ptr getelementptr inbounds (%struct.redisServer, ptr @server, i32 0, i32 182), align 8
  %11 = load i32, ptr %j, align 4
  %idxprom5 = sext i32 %11 to i64
  %arrayidx6 = getelementptr inbounds double, ptr %10, i64 %idxprom5
  %12 = load double, ptr %arrayidx6, align 8
  %call7 = call i64 @hdr_value_at_percentile(ptr noundef %9, double noundef %12)
  %conv8 = sitofp i64 %call7 to double
  %div = fdiv double %conv8, 1.000000e+03
  %call9 = call ptr (ptr, ptr, ...) @sdscatprintf(ptr noundef %8, ptr noundef @.str.329, ptr noundef %arraydecay4, double noundef %div)
  store ptr %call9, ptr %info.addr, align 8
  %13 = load i32, ptr %j, align 4
  %14 = load i32, ptr getelementptr inbounds (%struct.redisServer, ptr @server, i32 0, i32 183), align 8
  %sub = sub nsw i32 %14, 1
  %cmp10 = icmp ne i32 %13, %sub
  br i1 %cmp10, label %if.then, label %if.end

if.then:                                          ; preds = %for.body
  %15 = load ptr, ptr %info.addr, align 8
  %call12 = call ptr @sdscatlen(ptr noundef %15, ptr noundef @.str.330, i64 noundef 1)
  store ptr %call12, ptr %info.addr, align 8
  br label %if.end

if.end:                                           ; preds = %if.then, %for.body
  br label %for.inc

for.inc:                                          ; preds = %if.end
  %16 = load i32, ptr %j, align 4
  %inc = add nsw i32 %16, 1
  store i32 %inc, ptr %j, align 4
  br label %for.cond, !llvm.loop !66

for.end:                                          ; preds = %for.cond
  %17 = load ptr, ptr %info.addr, align 8
  %call13 = call ptr (ptr, ptr, ...) @sdscatprintf(ptr noundef %17, ptr noundef @.str.170)
  store ptr %call13, ptr %info.addr, align 8
  %18 = load ptr, ptr %info.addr, align 8
  ret ptr %18
}