; Function Attrs: nounwind uwtable
define dso_local ptr @fillPercentileDistributionLatencies(ptr noundef %info, ptr noundef %histogram_name, ptr noundef %histogram) local_unnamed_addr #0 {
entry:
  %fbuf = alloca [128 x i8], align 16
  %call = tail call ptr (ptr, ptr, ...) @sdscatfmt(ptr noundef %info, ptr noundef nonnull @.str.327, ptr noundef %histogram_name) #38
  %0 = load i32, ptr getelementptr inbounds (%struct.redisServer, ptr @server, i64 0, i32 183), align 8
  %cmp9 = icmp sgt i32 %0, 0
  br i1 %cmp9, label %for.body, label %for.end

for.body:                                         ; preds = %entry, %for.inc
  %indvars.iv = phi i64 [ %indvars.iv.next, %for.inc ], [ 0, %entry ]
  %info.addr.011 = phi ptr [ %info.addr.1, %for.inc ], [ %call, %entry ]
  %1 = load ptr, ptr getelementptr inbounds (%struct.redisServer, ptr @server, i64 0, i32 182), align 8
  %arrayidx = getelementptr inbounds double, ptr %1, i64 %indvars.iv
  %2 = load double, ptr %arrayidx, align 8
  %call1 = call i32 (ptr, i64, ptr, ...) @snprintf(ptr noundef nonnull dereferenceable(1) %fbuf, i64 noundef 128, ptr noundef nonnull @.str.328, double noundef %2) #38
  %conv = sext i32 %call1 to i64
  %call3 = call i32 @trimDoubleString(ptr noundef nonnull %fbuf, i64 noundef %conv) #38
  %3 = load ptr, ptr getelementptr inbounds (%struct.redisServer, ptr @server, i64 0, i32 182), align 8
  %arrayidx6 = getelementptr inbounds double, ptr %3, i64 %indvars.iv
  %4 = load double, ptr %arrayidx6, align 8
  %call7 = call i64 @hdr_value_at_percentile(ptr noundef %histogram, double noundef %4) #38
  %conv8 = sitofp i64 %call7 to double
  %div = fdiv double %conv8, 1.000000e+03
  %call9 = call ptr (ptr, ptr, ...) @sdscatprintf(ptr noundef %info.addr.011, ptr noundef nonnull @.str.329, ptr noundef nonnull %fbuf, double noundef %div) #38
  %5 = load i32, ptr getelementptr inbounds (%struct.redisServer, ptr @server, i64 0, i32 183), align 8
  %sub = add nsw i32 %5, -1
  %6 = zext i32 %sub to i64
  %cmp10.not = icmp eq i64 %indvars.iv, %6
  br i1 %cmp10.not, label %for.inc, label %if.then

if.then:                                          ; preds = %for.body
  %call12 = call ptr @sdscatlen(ptr noundef %call9, ptr noundef nonnull @.str.330, i64 noundef 1) #38
  %.pre = load i32, ptr getelementptr inbounds (%struct.redisServer, ptr @server, i64 0, i32 183), align 8
  br label %for.inc

for.inc:                                          ; preds = %for.body, %if.then
  %7 = phi i32 [ %.pre, %if.then ], [ %5, %for.body ]
  %info.addr.1 = phi ptr [ %call12, %if.then ], [ %call9, %for.body ]
  %indvars.iv.next = add nuw nsw i64 %indvars.iv, 1
  %8 = sext i32 %7 to i64
  %cmp = icmp slt i64 %indvars.iv.next, %8
  br i1 %cmp, label %for.body, label %for.end, !llvm.loop !67

for.end:                                          ; preds = %for.inc, %entry
  %info.addr.0.lcssa = phi ptr [ %call, %entry ], [ %info.addr.1, %for.inc ]
  %call13 = call ptr (ptr, ptr, ...) @sdscatprintf(ptr noundef %info.addr.0.lcssa, ptr noundef nonnull @.str.170) #38
  ret ptr %call13
}